target datalayout = "e-m:e-p270:32:32-p271:32:32-p272:64:64-i64:64-i128:128-f80:128-n8:16:32:64-S128"
target triple = "x86_64-unknown-linux-gnu"

%class.btGenericPoolAllocator = type { ptr, i64, i64, [16 x ptr], i64 }
%class.btGenericMemoryPool = type { ptr, ptr, ptr, i64, i64, i64, i64 }

@_ZTV22btGenericPoolAllocator = dso_local unnamed_addr constant { [4 x ptr] } { [4 x ptr] [ptr null, ptr @_ZTI22btGenericPoolAllocator, ptr @_ZN22btGenericPoolAllocatorD1Ev, ptr @_ZN22btGenericPoolAllocatorD0Ev] }, align 8

; Function Attrs: mustprogress uwtable
define dso_local void @_ZN19btGenericMemoryPool8end_poolEv(ptr noundef nonnull align 8 dereferenceable(56) %this) #2 align 2 {
entry:
  %this.addr = alloca ptr, align 8
  store ptr %this, ptr %this.addr, align 8
  %this1 = load ptr, ptr %this.addr, align 8
  %m_pool = getelementptr inbounds %class.btGenericMemoryPool, ptr %this1, i32 0, i32 0
  %0 = load ptr, ptr %m_pool, align 8
  call void @_Z21btAlignedFreeInternalPv(ptr noundef %0)
  %m_free_nodes = getelementptr inbounds %class.btGenericMemoryPool, ptr %this1, i32 0, i32 1
  %1 = load ptr, ptr %m_free_nodes, align 8
  call void @_Z21btAlignedFreeInternalPv(ptr noundef %1)
  %m_allocated_sizes = getelementptr inbounds %class.btGenericMemoryPool, ptr %this1, i32 0, i32 2
  %2 = load ptr, ptr %m_allocated_sizes, align 8
  call void @_Z21btAlignedFreeInternalPv(ptr noundef %2)
  %m_allocated_count = getelementptr inbounds %class.btGenericMemoryPool, ptr %this1, i32 0, i32 3
  store i64 0, ptr %m_allocated_count, align 8
  %m_free_nodes_count = getelementptr inbounds %class.btGenericMemoryPool, ptr %this1, i32 0, i32 4
  store i64 0, ptr %m_free_nodes_count, align 8
  ret void
}

; Function Attrs: mustprogress nounwind uwtable
define dso_local void @_ZN22btGenericPoolAllocatorD2Ev(ptr noundef nonnull align 8 dereferenceable(160) %this) unnamed_addr #1 align 2 personality ptr @__gxx_personality_v0 {
entry:
  %this.addr = alloca ptr, align 8
  %i = alloca i64, align 8
  store ptr %this, ptr %this.addr, align 8
  %this1 = load ptr, ptr %this.addr, align 8
  store ptr getelementptr inbounds ({ [4 x ptr] }, ptr @_ZTV22btGenericPoolAllocator, i32 0, i32 0, i32 2), ptr %this1, align 8
  store i64 0, ptr %i, align 8
  br label %for.cond

for.cond:                                         ; preds = %for.inc, %entry
  %0 = load i64, ptr %i, align 8
  %m_pool_count = getelementptr inbounds %class.btGenericPoolAllocator, ptr %this1, i32 0, i32 4
  %1 = load i64, ptr %m_pool_count, align 8
  %cmp = icmp ult i64 %0, %1
  br i1 %cmp, label %for.body, label %for.end

for.body:                                         ; preds = %for.cond
  %m_pools = getelementptr inbounds %class.btGenericPoolAllocator, ptr %this1, i32 0, i32 3
  %2 = load i64, ptr %i, align 8
  %arrayidx = getelementptr inbounds [16 x ptr], ptr %m_pools, i64 0, i64 %2
  %3 = load ptr, ptr %arrayidx, align 8
  invoke void @_ZN19btGenericMemoryPool8end_poolEv(ptr noundef nonnull align 8 dereferenceable(56) %3)
          to label %invoke.cont unwind label %terminate.lpad

invoke.cont:                                      ; preds = %for.body
  %m_pools2 = getelementptr inbounds %class.btGenericPoolAllocator, ptr %this1, i32 0, i32 3
  %4 = load i64, ptr %i, align 8
  %arrayidx3 = getelementptr inbounds [16 x ptr], ptr %m_pools2, i64 0, i64 %4
  %5 = load ptr, ptr %arrayidx3, align 8
  invoke void @_Z21btAlignedFreeInternalPv(ptr noundef %5)
          to label %invoke.cont4 unwind label %terminate.lpad

invoke.cont4:                                     ; preds = %invoke.cont
  br label %for.inc

for.inc:                                          ; preds = %invoke.cont4
  %6 = load i64, ptr %i, align 8
  %inc = add i64 %6, 1
  store i64 %inc, ptr %i, align 8
  br label %for.cond, !llvm.loop !8

for.end:                                          ; preds = %for.cond
  ret void

terminate.lpad:                                   ; preds = %invoke.cont, %for.body
  %7 = landingpad { ptr, i32 }
          catch ptr null
  %8 = extractvalue { ptr, i32 } %7, 0
  call void @__clang_call_terminate(ptr %8) #8
  unreachable
}