; Function Attrs: mustprogress nounwind uwtable
define dso_local void @_ZN22btGenericPoolAllocatorD2Ev(ptr nocapture noundef nonnull align 8 dereferenceable(160) %this) unnamed_addr #4 align 2 personality ptr @__gxx_personality_v0 {
entry:
  store ptr getelementptr inbounds ({ [4 x ptr] }, ptr @_ZTV22btGenericPoolAllocator, i64 0, i32 0, i64 2), ptr %this, align 8
  %m_pool_count = getelementptr inbounds i8, ptr %this, i64 152
  %0 = load i64, ptr %m_pool_count, align 8
  %cmp6.not = icmp eq i64 %0, 0
  br i1 %cmp6.not, label %for.end, label %for.body.lr.ph

for.body.lr.ph:                                   ; preds = %entry
  %m_pools = getelementptr inbounds i8, ptr %this, i64 24
  br label %for.body

for.body:                                         ; preds = %for.body.lr.ph, %for.inc
  %i.07 = phi i64 [ 0, %for.body.lr.ph ], [ %inc, %for.inc ]
  %arrayidx = getelementptr inbounds [16 x ptr], ptr %m_pools, i64 0, i64 %i.07
  %1 = load ptr, ptr %arrayidx, align 8
  %2 = load ptr, ptr %1, align 8
  invoke void @_Z21btAlignedFreeInternalPv(ptr noundef %2)
          to label %.noexc unwind label %terminate.lpad

.noexc:                                           ; preds = %for.body
  %m_free_nodes.i = getelementptr inbounds i8, ptr %1, i64 8
  %3 = load ptr, ptr %m_free_nodes.i, align 8
  invoke void @_Z21btAlignedFreeInternalPv(ptr noundef %3)
          to label %.noexc4 unwind label %terminate.lpad

.noexc4:                                          ; preds = %.noexc
  %m_allocated_sizes.i = getelementptr inbounds i8, ptr %1, i64 16
  %4 = load ptr, ptr %m_allocated_sizes.i, align 8
  invoke void @_Z21btAlignedFreeInternalPv(ptr noundef %4)
          to label %invoke.cont unwind label %terminate.lpad

invoke.cont:                                      ; preds = %.noexc4
  %m_allocated_count.i = getelementptr inbounds i8, ptr %1, i64 24
  tail call void @llvm.memset.p0.i64(ptr noundef nonnull align 8 dereferenceable(16) %m_allocated_count.i, i8 0, i64 16, i1 false)
  %5 = load ptr, ptr %arrayidx, align 8
  invoke void @_Z21btAlignedFreeInternalPv(ptr noundef %5)
          to label %for.inc unwind label %terminate.lpad

for.inc:                                          ; preds = %invoke.cont
  %inc = add nuw i64 %i.07, 1
  %6 = load i64, ptr %m_pool_count, align 8
  %cmp = icmp ult i64 %inc, %6
  br i1 %cmp, label %for.body, label %for.end, !llvm.loop !8

for.end:                                          ; preds = %for.inc, %entry
  ret void

terminate.lpad:                                   ; preds = %.noexc4, %.noexc, %for.body, %invoke.cont
  %7 = landingpad { ptr, i32 }
          catch ptr null
  %8 = extractvalue { ptr, i32 } %7, 0
  tail call void @__clang_call_terminate(ptr %8) #12
  unreachable
}